target datalayout = "e-m:e-p270:32:32-p271:32:32-p272:64:64-i64:64-i128:128-f80:128-n8:16:32:64-S128"
target triple = "x86_64-pc-linux-gnu"

%"struct.icu_77::LSR" = type <{ ptr, ptr, ptr, ptr, i32, i32, i32, [4 x i8] }>

; Function Attrs: mustprogress nounwind uwtable
define noundef signext i8 @_ZNK6icu_773LSR14isEquivalentToERKS0_(ptr noundef nonnull align 8 dereferenceable(48) %0, ptr noundef nonnull align 8 dereferenceable(48) %1) #0 align 2 {
  %3 = alloca ptr, align 8
  %4 = alloca ptr, align 8
  store ptr %0, ptr %3, align 8, !tbaa !23
  store ptr %1, ptr %4, align 8, !tbaa !23
  %5 = load ptr, ptr %3, align 8
  %6 = getelementptr inbounds nuw %"struct.icu_77::LSR", ptr %5, i32 0, i32 0
  %7 = load ptr, ptr %6, align 8, !tbaa !26
  %8 = load ptr, ptr %4, align 8, !tbaa !23
  %9 = getelementptr inbounds nuw %"struct.icu_77::LSR", ptr %8, i32 0, i32 0
  %10 = load ptr, ptr %9, align 8, !tbaa !26
  %11 = call i32 @strcmp(ptr noundef %7, ptr noundef %10) #13
  %12 = icmp eq i32 %11, 0
  br i1 %12, label %13, label %42

13:                                               ; preds = %2
  %14 = getelementptr inbounds nuw %"struct.icu_77::LSR", ptr %5, i32 0, i32 1
  %15 = load ptr, ptr %14, align 8, !tbaa !28
  %16 = load ptr, ptr %4, align 8, !tbaa !23
  %17 = getelementptr inbounds nuw %"struct.icu_77::LSR", ptr %16, i32 0, i32 1
  %18 = load ptr, ptr %17, align 8, !tbaa !28
  %19 = call i32 @strcmp(ptr noundef %15, ptr noundef %18) #13
  %20 = icmp eq i32 %19, 0
  br i1 %20, label %21, label %42

21:                                               ; preds = %13
  %22 = getelementptr inbounds nuw %"struct.icu_77::LSR", ptr %5, i32 0, i32 4
  %23 = load i32, ptr %22, align 8, !tbaa !31
  %24 = load ptr, ptr %4, align 8, !tbaa !23
  %25 = getelementptr inbounds nuw %"struct.icu_77::LSR", ptr %24, i32 0, i32 4
  %26 = load i32, ptr %25, align 8, !tbaa !31
  %27 = icmp eq i32 %23, %26
  br i1 %27, label %28, label %42

28:                                               ; preds = %21
  %29 = getelementptr inbounds nuw %"struct.icu_77::LSR", ptr %5, i32 0, i32 4
  %30 = load i32, ptr %29, align 8, !tbaa !31
  %31 = icmp sgt i32 %30, 0
  br i1 %31, label %40, label %32

32:                                               ; preds = %28
  %33 = getelementptr inbounds nuw %"struct.icu_77::LSR", ptr %5, i32 0, i32 2
  %34 = load ptr, ptr %33, align 8, !tbaa !29
  %35 = load ptr, ptr %4, align 8, !tbaa !23
  %36 = getelementptr inbounds nuw %"struct.icu_77::LSR", ptr %35, i32 0, i32 2
  %37 = load ptr, ptr %36, align 8, !tbaa !29
  %38 = call i32 @strcmp(ptr noundef %34, ptr noundef %37) #13
  %39 = icmp eq i32 %38, 0
  br label %40

40:                                               ; preds = %32, %28
  %41 = phi i1 [ true, %28 ], [ %39, %32 ]
  br label %42

42:                                               ; preds = %40, %21, %13, %2
  %43 = phi i1 [ false, %21 ], [ false, %13 ], [ false, %2 ], [ %41, %40 ]
  %44 = zext i1 %43 to i8
  ret i8 %44
}