; Function Attrs: mustprogress nofree nounwind willreturn memory(read, inaccessiblemem: none) uwtable
define noundef signext range(i8 0, 2) i8 @_ZNK6icu_773LSR14isEquivalentToERKS0_(ptr noundef nonnull readonly align 8 captures(none) dereferenceable(48) %0, ptr noundef nonnull readonly align 8 captures(none) dereferenceable(48) %1) local_unnamed_addr #12 align 2 {
  %3 = load ptr, ptr %0, align 8, !tbaa !24
  %4 = load ptr, ptr %1, align 8, !tbaa !24
  %5 = tail call i32 @strcmp(ptr noundef nonnull dereferenceable(1) %3, ptr noundef nonnull dereferenceable(1) %4) #19
  %6 = icmp eq i32 %5, 0
  br i1 %6, label %7, label %30

7:                                                ; preds = %2
  %8 = getelementptr inbounds nuw i8, ptr %0, i64 8
  %9 = load ptr, ptr %8, align 8, !tbaa !25
  %10 = getelementptr inbounds nuw i8, ptr %1, i64 8
  %11 = load ptr, ptr %10, align 8, !tbaa !25
  %12 = tail call i32 @strcmp(ptr noundef nonnull dereferenceable(1) %9, ptr noundef nonnull dereferenceable(1) %11) #19
  %13 = icmp eq i32 %12, 0
  br i1 %13, label %14, label %30

14:                                               ; preds = %7
  %15 = getelementptr inbounds nuw i8, ptr %0, i64 32
  %16 = load i32, ptr %15, align 8, !tbaa !19
  %17 = getelementptr inbounds nuw i8, ptr %1, i64 32
  %18 = load i32, ptr %17, align 8, !tbaa !19
  %19 = icmp eq i32 %16, %18
  br i1 %19, label %20, label %30

20:                                               ; preds = %14
  %21 = icmp sgt i32 %16, 0
  br i1 %21, label %30, label %22

22:                                               ; preds = %20
  %23 = getelementptr inbounds nuw i8, ptr %0, i64 16
  %24 = load ptr, ptr %23, align 8, !tbaa !15
  %25 = getelementptr inbounds nuw i8, ptr %1, i64 16
  %26 = load ptr, ptr %25, align 8, !tbaa !15
  %27 = tail call i32 @strcmp(ptr noundef nonnull dereferenceable(1) %24, ptr noundef nonnull dereferenceable(1) %26) #19
  %28 = icmp eq i32 %27, 0
  %29 = zext i1 %28 to i8
  br label %30

30:                                               ; preds = %20, %22, %14, %7, %2
  %31 = phi i8 [ 0, %14 ], [ 0, %7 ], [ 0, %2 ], [ 1, %20 ], [ %29, %22 ]
  ret i8 %31
}